target datalayout = "e-m:e-p270:32:32-p271:32:32-p272:64:64-i64:64-i128:128-f80:128-n8:16:32:64-S128"
target triple = "x86_64-pc-linux-gnu"

%struct.slurm_conf_t = type { i64, ptr, i16, ptr, ptr, ptr, ptr, ptr, i16, ptr, ptr, ptr, ptr, ptr, ptr, ptr, i16, ptr, ptr, ptr, ptr, i16, ptr, ptr, ptr, i64, ptr, ptr, ptr, ptr, i16, ptr, ptr, i16, i32, ptr, i32, ptr, i32, i32, ptr, ptr, i64, i64, ptr, i16, i16, ptr, i32, i32, ptr, i32, ptr, i32, i16, i16, i16, ptr, i16, i16, ptr, ptr, i32, i16, i16, ptr, i32, i16, ptr, ptr, ptr, ptr, i16, ptr, ptr, ptr, ptr, i32, ptr, ptr, ptr, ptr, i16, i16, ptr, i32, i32, i32, i16, i16, ptr, ptr, i16, ptr, ptr, i32, i32, i32, i32, i32, i64, i32, i32, i16, ptr, ptr, i32, ptr, ptr, ptr, i16, i32, ptr, ptr, i16, ptr, ptr, i32, i16, ptr, ptr, ptr, ptr, i32, i32, i16, i16, i32, ptr, i16, ptr, i32, i32, i32, i32, i32, i32, ptr, i16, ptr, ptr, i32, i16, ptr, i32, i16, i16, ptr, ptr, ptr, i16, ptr, ptr, ptr, ptr, i16, i16, ptr, i16, ptr, i16, ptr, i16, ptr, i16, ptr, ptr, ptr, ptr, i16, ptr, ptr, ptr, i32, ptr, i32, ptr, ptr, i16, ptr, ptr, i32, i16, ptr, ptr, i16, i16, ptr, i16, ptr, ptr, ptr, i32, ptr, i16, i16, ptr, ptr, ptr, ptr, ptr, ptr, ptr, ptr, i16, i32, i16, ptr, ptr, ptr, ptr, i32, ptr, ptr, ptr, i16, ptr, ptr, ptr, i16, ptr, i16, ptr, i16, i16, ptr }
%struct.slurmdbd_ping_t = type { ptr, i8, i64, i32 }

@.str.2 = private unnamed_addr constant [15 x i8] c"slurmdb_defs.c\00", align 1
@slurm_conf = external global %struct.slurm_conf_t, align 8
@__func__.slurmdb_ping_all = private unnamed_addr constant [17 x i8] c"slurmdb_ping_all\00", align 1

; Function Attrs: nounwind uwtable
define dso_local ptr @slurmdb_ping_all() #0 {
  %1 = alloca ptr, align 8
  %2 = alloca ptr, align 8
  %3 = alloca i32, align 4
  %4 = alloca i32, align 4
  %5 = alloca i32, align 4
  call void @llvm.lifetime.start.p0(i64 8, ptr %2) #10
  store ptr null, ptr %2, align 8
  call void @llvm.lifetime.start.p0(i64 4, ptr %3) #10
  store i32 0, ptr %3, align 4
  call void @llvm.lifetime.start.p0(i64 4, ptr %4) #10
  store i32 0, ptr %4, align 4
  %6 = load ptr, ptr getelementptr inbounds nuw (%struct.slurm_conf_t, ptr @slurm_conf, i32 0, i32 5), align 8
  %7 = icmp ne ptr %6, null
  br i1 %7, label %8, label %11

8:                                                ; preds = %0
  %9 = load i32, ptr %3, align 4
  %10 = add nsw i32 %9, 1
  store i32 %10, ptr %3, align 4
  br label %12

11:                                               ; preds = %0
  store ptr null, ptr %1, align 8
  store i32 1, ptr %5, align 4
  br label %63

12:                                               ; preds = %8
  %13 = load ptr, ptr getelementptr inbounds nuw (%struct.slurm_conf_t, ptr @slurm_conf, i32 0, i32 3), align 8
  %14 = icmp ne ptr %13, null
  br i1 %14, label %15, label %18

15:                                               ; preds = %12
  %16 = load i32, ptr %3, align 4
  %17 = add nsw i32 %16, 1
  store i32 %17, ptr %3, align 4
  br label %18

18:                                               ; preds = %15, %12
  %19 = load i32, ptr %3, align 4
  %20 = add nsw i32 %19, 1
  %21 = sext i32 %20 to i64
  %22 = call ptr @slurm_xcalloc(i64 noundef %21, i64 noundef 32, i1 noundef zeroext true, i1 noundef zeroext false, ptr noundef @.str.2, i32 noundef 2334, ptr noundef @__func__.slurmdb_ping_all)
  store ptr %22, ptr %2, align 8
  %23 = load ptr, ptr getelementptr inbounds nuw (%struct.slurm_conf_t, ptr @slurm_conf, i32 0, i32 5), align 8
  %24 = load ptr, ptr %2, align 8
  %25 = load i32, ptr %4, align 4
  %26 = sext i32 %25 to i64
  %27 = getelementptr inbounds %struct.slurmdbd_ping_t, ptr %24, i64 %26
  %28 = getelementptr inbounds nuw %struct.slurmdbd_ping_t, ptr %27, i32 0, i32 0
  store ptr %23, ptr %28, align 8
  %29 = load ptr, ptr %2, align 8
  %30 = load i32, ptr %4, align 4
  %31 = sext i32 %30 to i64
  %32 = getelementptr inbounds %struct.slurmdbd_ping_t, ptr %29, i64 %31
  %33 = load i32, ptr %4, align 4
  call void @_ping_slurmdbd(ptr noundef %32, i32 noundef %33)
  %34 = load ptr, ptr %2, align 8
  %35 = load i32, ptr %4, align 4
  %36 = sext i32 %35 to i64
  %37 = getelementptr inbounds %struct.slurmdbd_ping_t, ptr %34, i64 %36
  %38 = getelementptr inbounds nuw %struct.slurmdbd_ping_t, ptr %37, i32 0, i32 1
  %39 = load i8, ptr %38, align 8, !range !12, !noundef !13
  %40 = trunc i8 %39 to i1
  br i1 %40, label %41, label %43

41:                                               ; preds = %18
  %42 = load ptr, ptr %2, align 8
  store ptr %42, ptr %1, align 8
  store i32 1, ptr %5, align 4
  br label %63

43:                                               ; preds = %18
  %44 = load ptr, ptr getelementptr inbounds nuw (%struct.slurm_conf_t, ptr @slurm_conf, i32 0, i32 3), align 8
  %45 = icmp ne ptr %44, null
  br i1 %45, label %48, label %46

46:                                               ; preds = %43
  %47 = load ptr, ptr %2, align 8
  store ptr %47, ptr %1, align 8
  store i32 1, ptr %5, align 4
  br label %63

48:                                               ; preds = %43
  %49 = load i32, ptr %4, align 4
  %50 = add nsw i32 %49, 1
  store i32 %50, ptr %4, align 4
  %51 = load ptr, ptr getelementptr inbounds nuw (%struct.slurm_conf_t, ptr @slurm_conf, i32 0, i32 3), align 8
  %52 = load ptr, ptr %2, align 8
  %53 = load i32, ptr %4, align 4
  %54 = sext i32 %53 to i64
  %55 = getelementptr inbounds %struct.slurmdbd_ping_t, ptr %52, i64 %54
  %56 = getelementptr inbounds nuw %struct.slurmdbd_ping_t, ptr %55, i32 0, i32 0
  store ptr %51, ptr %56, align 8
  %57 = load ptr, ptr %2, align 8
  %58 = load i32, ptr %4, align 4
  %59 = sext i32 %58 to i64
  %60 = getelementptr inbounds %struct.slurmdbd_ping_t, ptr %57, i64 %59
  %61 = load i32, ptr %4, align 4
  call void @_ping_slurmdbd(ptr noundef %60, i32 noundef %61)
  %62 = load ptr, ptr %2, align 8
  store ptr %62, ptr %1, align 8
  store i32 1, ptr %5, align 4
  br label %63

63:                                               ; preds = %48, %46, %41, %11
  call void @llvm.lifetime.end.p0(i64 4, ptr %4) #10
  call void @llvm.lifetime.end.p0(i64 4, ptr %3) #10
  call void @llvm.lifetime.end.p0(i64 8, ptr %2) #10
  %64 = load ptr, ptr %1, align 8
  ret ptr %64
}