; Function Attrs: nounwind uwtable
define dso_local noundef ptr @slurmdb_ping_all() local_unnamed_addr #0 {
  %1 = load ptr, ptr getelementptr inbounds nuw (i8, ptr @slurm_conf, i64 40), align 8
  %.not = icmp eq ptr %1, null
  br i1 %.not, label %13, label %2

2:                                                ; preds = %0
  %3 = load ptr, ptr getelementptr inbounds nuw (i8, ptr @slurm_conf, i64 24), align 8
  %.not21 = icmp eq ptr %3, null
  %spec.select = select i1 %.not21, i64 2, i64 3
  %4 = tail call ptr @slurm_xcalloc(i64 noundef %spec.select, i64 noundef 32, i1 noundef zeroext true, i1 noundef zeroext false, ptr noundef nonnull @.str.2, i32 noundef 2334, ptr noundef nonnull @__func__.slurmdb_ping_all) #19
  %5 = load ptr, ptr getelementptr inbounds nuw (i8, ptr @slurm_conf, i64 40), align 8
  store ptr %5, ptr %4, align 8
  tail call fastcc void @_ping_slurmdbd(ptr noundef nonnull %4, i32 noundef 0)
  %6 = getelementptr inbounds nuw i8, ptr %4, i64 8
  %7 = load i8, ptr %6, align 8, !range !24, !noundef !25
  %8 = trunc nuw i8 %7 to i1
  br i1 %8, label %13, label %9

9:                                                ; preds = %2
  %10 = load ptr, ptr getelementptr inbounds nuw (i8, ptr @slurm_conf, i64 24), align 8
  %.not22 = icmp eq ptr %10, null
  br i1 %.not22, label %13, label %11

11:                                               ; preds = %9
  %12 = getelementptr inbounds nuw i8, ptr %4, i64 32
  store ptr %10, ptr %12, align 8
  tail call fastcc void @_ping_slurmdbd(ptr noundef nonnull %12, i32 noundef 1)
  br label %13

13:                                               ; preds = %9, %2, %0, %11
  %.019 = phi ptr [ %4, %11 ], [ null, %0 ], [ %4, %2 ], [ %4, %9 ]
  ret ptr %.019
}